
guess:     file format elf64-x86-64


Disassembly of section .init:

0000000000001000 <_init>:
    1000:	f3 0f 1e fa          	endbr64 
    1004:	48 83 ec 08          	sub    rsp,0x8
    1008:	48 8b 05 d9 2f 00 00 	mov    rax,QWORD PTR [rip+0x2fd9]        # 3fe8 <__gmon_start__>
    100f:	48 85 c0             	test   rax,rax
    1012:	74 02                	je     1016 <_init+0x16>
    1014:	ff d0                	call   rax
    1016:	48 83 c4 08          	add    rsp,0x8
    101a:	c3                   	ret    

Disassembly of section .plt:

0000000000001020 <puts@plt-0x10>:
    1020:	ff 35 e2 2f 00 00    	push   QWORD PTR [rip+0x2fe2]        # 4008 <_GLOBAL_OFFSET_TABLE_+0x8>
    1026:	ff 25 e4 2f 00 00    	jmp    QWORD PTR [rip+0x2fe4]        # 4010 <_GLOBAL_OFFSET_TABLE_+0x10>
    102c:	0f 1f 40 00          	nop    DWORD PTR [rax+0x0]

0000000000001030 <puts@plt>:
    1030:	ff 25 e2 2f 00 00    	jmp    QWORD PTR [rip+0x2fe2]        # 4018 <puts@GLIBC_2.2.5>
    1036:	68 00 00 00 00       	push   0x0
    103b:	e9 e0 ff ff ff       	jmp    1020 <_init+0x20>

0000000000001040 <getpid@plt>:
    1040:	ff 25 da 2f 00 00    	jmp    QWORD PTR [rip+0x2fda]        # 4020 <getpid@GLIBC_2.2.5>
    1046:	68 01 00 00 00       	push   0x1
    104b:	e9 d0 ff ff ff       	jmp    1020 <_init+0x20>

0000000000001050 <__stack_chk_fail@plt>:
    1050:	ff 25 d2 2f 00 00    	jmp    QWORD PTR [rip+0x2fd2]        # 4028 <__stack_chk_fail@GLIBC_2.4>
    1056:	68 02 00 00 00       	push   0x2
    105b:	e9 c0 ff ff ff       	jmp    1020 <_init+0x20>

0000000000001060 <printf@plt>:
    1060:	ff 25 ca 2f 00 00    	jmp    QWORD PTR [rip+0x2fca]        # 4030 <printf@GLIBC_2.2.5>
    1066:	68 03 00 00 00       	push   0x3
    106b:	e9 b0 ff ff ff       	jmp    1020 <_init+0x20>

0000000000001070 <srand@plt>:
    1070:	ff 25 c2 2f 00 00    	jmp    QWORD PTR [rip+0x2fc2]        # 4038 <srand@GLIBC_2.2.5>
    1076:	68 04 00 00 00       	push   0x4
    107b:	e9 a0 ff ff ff       	jmp    1020 <_init+0x20>

0000000000001080 <fgets@plt>:
    1080:	ff 25 ba 2f 00 00    	jmp    QWORD PTR [rip+0x2fba]        # 4040 <fgets@GLIBC_2.2.5>
    1086:	68 05 00 00 00       	push   0x5
    108b:	e9 90 ff ff ff       	jmp    1020 <_init+0x20>

0000000000001090 <strtol@plt>:
    1090:	ff 25 b2 2f 00 00    	jmp    QWORD PTR [rip+0x2fb2]        # 4048 <strtol@GLIBC_2.2.5>
    1096:	68 06 00 00 00       	push   0x6
    109b:	e9 80 ff ff ff       	jmp    1020 <_init+0x20>

00000000000010a0 <time@plt>:
    10a0:	ff 25 aa 2f 00 00    	jmp    QWORD PTR [rip+0x2faa]        # 4050 <time@GLIBC_2.2.5>
    10a6:	68 07 00 00 00       	push   0x7
    10ab:	e9 70 ff ff ff       	jmp    1020 <_init+0x20>

00000000000010b0 <setvbuf@plt>:
    10b0:	ff 25 a2 2f 00 00    	jmp    QWORD PTR [rip+0x2fa2]        # 4058 <setvbuf@GLIBC_2.2.5>
    10b6:	68 08 00 00 00       	push   0x8
    10bb:	e9 60 ff ff ff       	jmp    1020 <_init+0x20>

00000000000010c0 <rand@plt>:
    10c0:	ff 25 9a 2f 00 00    	jmp    QWORD PTR [rip+0x2f9a]        # 4060 <rand@GLIBC_2.2.5>
    10c6:	68 09 00 00 00       	push   0x9
    10cb:	e9 50 ff ff ff       	jmp    1020 <_init+0x20>

Disassembly of section .text:

00000000000010d0 <_start>:
    10d0:	f3 0f 1e fa          	endbr64 
    10d4:	31 ed                	xor    ebp,ebp
    10d6:	49 89 d1             	mov    r9,rdx
    10d9:	5e                   	pop    rsi
    10da:	48 89 e2             	mov    rdx,rsp
    10dd:	48 83 e4 f0          	and    rsp,0xfffffffffffffff0
    10e1:	50                   	push   rax
    10e2:	54                   	push   rsp
    10e3:	4c 8d 05 76 02 00 00 	lea    r8,[rip+0x276]        # 1360 <__libc_csu_fini>
    10ea:	48 8d 0d ff 01 00 00 	lea    rcx,[rip+0x1ff]        # 12f0 <__libc_csu_init>
    10f1:	48 8d 3d d1 00 00 00 	lea    rdi,[rip+0xd1]        # 11c9 <main>
    10f8:	ff 15 e2 2e 00 00    	call   QWORD PTR [rip+0x2ee2]        # 3fe0 <__libc_start_main@GLIBC_2.2.5>
    10fe:	f4                   	hlt    
    10ff:	90                   	nop

0000000000001100 <deregister_tm_clones>:
    1100:	48 8d 3d 71 2f 00 00 	lea    rdi,[rip+0x2f71]        # 4078 <__TMC_END__>
    1107:	48 8d 05 6a 2f 00 00 	lea    rax,[rip+0x2f6a]        # 4078 <__TMC_END__>
    110e:	48 39 f8             	cmp    rax,rdi
    1111:	74 15                	je     1128 <deregister_tm_clones+0x28>
    1113:	48 8b 05 be 2e 00 00 	mov    rax,QWORD PTR [rip+0x2ebe]        # 3fd8 <_ITM_deregisterTMCloneTable>
    111a:	48 85 c0             	test   rax,rax
    111d:	74 09                	je     1128 <deregister_tm_clones+0x28>
    111f:	ff e0                	jmp    rax
    1121:	0f 1f 80 00 00 00 00 	nop    DWORD PTR [rax+0x0]
    1128:	c3                   	ret    
    1129:	0f 1f 80 00 00 00 00 	nop    DWORD PTR [rax+0x0]

0000000000001130 <register_tm_clones>:
    1130:	48 8d 3d 41 2f 00 00 	lea    rdi,[rip+0x2f41]        # 4078 <__TMC_END__>
    1137:	48 8d 35 3a 2f 00 00 	lea    rsi,[rip+0x2f3a]        # 4078 <__TMC_END__>
    113e:	48 29 fe             	sub    rsi,rdi
    1141:	48 89 f0             	mov    rax,rsi
    1144:	48 c1 ee 3f          	shr    rsi,0x3f
    1148:	48 c1 f8 03          	sar    rax,0x3
    114c:	48 01 c6             	add    rsi,rax
    114f:	48 d1 fe             	sar    rsi,1
    1152:	74 14                	je     1168 <register_tm_clones+0x38>
    1154:	48 8b 05 95 2e 00 00 	mov    rax,QWORD PTR [rip+0x2e95]        # 3ff0 <_ITM_registerTMCloneTable>
    115b:	48 85 c0             	test   rax,rax
    115e:	74 08                	je     1168 <register_tm_clones+0x38>
    1160:	ff e0                	jmp    rax
    1162:	66 0f 1f 44 00 00    	nop    WORD PTR [rax+rax*1+0x0]
    1168:	c3                   	ret    
    1169:	0f 1f 80 00 00 00 00 	nop    DWORD PTR [rax+0x0]

0000000000001170 <__do_global_dtors_aux>:
    1170:	f3 0f 1e fa          	endbr64 
    1174:	80 3d 1d 2f 00 00 00 	cmp    BYTE PTR [rip+0x2f1d],0x0        # 4098 <completed.0>
    117b:	75 33                	jne    11b0 <__do_global_dtors_aux+0x40>
    117d:	55                   	push   rbp
    117e:	48 83 3d 72 2e 00 00 	cmp    QWORD PTR [rip+0x2e72],0x0        # 3ff8 <__cxa_finalize@GLIBC_2.2.5>
    1185:	00 
    1186:	48 89 e5             	mov    rbp,rsp
    1189:	74 0d                	je     1198 <__do_global_dtors_aux+0x28>
    118b:	48 8b 3d de 2e 00 00 	mov    rdi,QWORD PTR [rip+0x2ede]        # 4070 <__dso_handle>
    1192:	ff 15 60 2e 00 00    	call   QWORD PTR [rip+0x2e60]        # 3ff8 <__cxa_finalize@GLIBC_2.2.5>
    1198:	e8 63 ff ff ff       	call   1100 <deregister_tm_clones>
    119d:	c6 05 f4 2e 00 00 01 	mov    BYTE PTR [rip+0x2ef4],0x1        # 4098 <completed.0>
    11a4:	5d                   	pop    rbp
    11a5:	c3                   	ret    
    11a6:	66 2e 0f 1f 84 00 00 	cs nop WORD PTR [rax+rax*1+0x0]
    11ad:	00 00 00 
    11b0:	c3                   	ret    
    11b1:	66 66 2e 0f 1f 84 00 	data16 cs nop WORD PTR [rax+rax*1+0x0]
    11b8:	00 00 00 00 
    11bc:	0f 1f 40 00          	nop    DWORD PTR [rax+0x0]

00000000000011c0 <frame_dummy>:
    11c0:	f3 0f 1e fa          	endbr64 
    11c4:	e9 67 ff ff ff       	jmp    1130 <register_tm_clones>

00000000000011c9 <main>:
    11c9:	55                   	push   rbp
    11ca:	48 89 e5             	mov    rbp,rsp
    11cd:	53                   	push   rbx
    11ce:	48 83 ec 38          	sub    rsp,0x38
    11d2:	64 48 8b 04 25 28 00 	mov    rax,QWORD PTR fs:0x28
    11d9:	00 00 
    11db:	48 89 45 e8          	mov    QWORD PTR [rbp-0x18],rax
    11df:	31 c0                	xor    eax,eax
    11e1:	48 8b 05 98 2e 00 00 	mov    rax,QWORD PTR [rip+0x2e98]        # 4080 <stdout@@GLIBC_2.2.5>
    11e8:	b9 00 00 00 00       	mov    ecx,0x0
    11ed:	ba 02 00 00 00       	mov    edx,0x2
    11f2:	be 00 00 00 00       	mov    esi,0x0
    11f7:	48 89 c7             	mov    rdi,rax
    11fa:	e8 b1 fe ff ff       	call   10b0 <setvbuf@plt>
    11ff:	bf 00 00 00 00       	mov    edi,0x0
    1204:	e8 97 fe ff ff       	call   10a0 <time@plt>
    1209:	89 c3                	mov    ebx,eax
    120b:	e8 30 fe ff ff       	call   1040 <getpid@plt>
    1210:	31 d8                	xor    eax,ebx
    1212:	89 c7                	mov    edi,eax
    1214:	e8 57 fe ff ff       	call   1070 <srand@plt>
    1219:	e8 a2 fe ff ff       	call   10c0 <rand@plt>
    121e:	48 63 d0             	movsxd rdx,eax
    1221:	48 69 d2 ad 8b db 68 	imul   rdx,rdx,0x68db8bad
    1228:	48 c1 ea 20          	shr    rdx,0x20
    122c:	c1 fa 0c             	sar    edx,0xc
    122f:	89 c1                	mov    ecx,eax
    1231:	c1 f9 1f             	sar    ecx,0x1f
    1234:	29 ca                	sub    edx,ecx
    1236:	69 ca 10 27 00 00    	imul   ecx,edx,0x2710
    123c:	29 c8                	sub    eax,ecx
    123e:	89 c2                	mov    edx,eax
    1240:	89 55 e0             	mov    DWORD PTR [rbp-0x20],edx
    1243:	48 8d 3d ba 0d 00 00 	lea    rdi,[rip+0xdba]        # 2004 <_IO_stdin_used+0x4>
    124a:	b8 00 00 00 00       	mov    eax,0x0
    124f:	e8 0c fe ff ff       	call   1060 <printf@plt>
    1254:	48 8b 15 35 2e 00 00 	mov    rdx,QWORD PTR [rip+0x2e35]        # 4090 <stdin@@GLIBC_2.2.5>
    125b:	48 8d 45 d0          	lea    rax,[rbp-0x30]
    125f:	be 14 00 00 00       	mov    esi,0x14
    1264:	48 89 c7             	mov    rdi,rax
    1267:	e8 14 fe ff ff       	call   1080 <fgets@plt>
    126c:	48 85 c0             	test   rax,rax
    126f:	74 51                	je     12c2 <main+0xf9>
    1271:	48 8d 45 d0          	lea    rax,[rbp-0x30]
    1275:	ba 00 00 00 00       	mov    edx,0x0
    127a:	be 00 00 00 00       	mov    esi,0x0
    127f:	48 89 c7             	mov    rdi,rax
    1282:	e8 09 fe ff ff       	call   1090 <strtol@plt>
    1287:	89 45 cc             	mov    DWORD PTR [rbp-0x34],eax
    128a:	8b 45 cc             	mov    eax,DWORD PTR [rbp-0x34]
    128d:	89 c6                	mov    esi,eax
    128f:	48 8d 3d 81 0d 00 00 	lea    rdi,[rip+0xd81]        # 2017 <_IO_stdin_used+0x17>
    1296:	b8 00 00 00 00       	mov    eax,0x0
    129b:	e8 c0 fd ff ff       	call   1060 <printf@plt>
    12a0:	8b 45 e0             	mov    eax,DWORD PTR [rbp-0x20]
    12a3:	39 45 cc             	cmp    DWORD PTR [rbp-0x34],eax
    12a6:	75 0e                	jne    12b6 <main+0xed>
    12a8:	48 8d 3d 7a 0d 00 00 	lea    rdi,[rip+0xd7a]        # 2029 <_IO_stdin_used+0x29>
    12af:	e8 7c fd ff ff       	call   1030 <puts@plt>
    12b4:	eb 0c                	jmp    12c2 <main+0xf9>
    12b6:	48 8d 3d 73 0d 00 00 	lea    rdi,[rip+0xd73]        # 2030 <_IO_stdin_used+0x30>
    12bd:	e8 6e fd ff ff       	call   1030 <puts@plt>
    12c2:	b8 00 00 00 00       	mov    eax,0x0
    12c7:	48 8b 5d e8          	mov    rbx,QWORD PTR [rbp-0x18]
    12cb:	64 48 2b 1c 25 28 00 	sub    rbx,QWORD PTR fs:0x28
    12d2:	00 00 
    12d4:	74 05                	je     12db <main+0x112>
    12d6:	e8 75 fd ff ff       	call   1050 <__stack_chk_fail@plt>
    12db:	48 8b 5d f8          	mov    rbx,QWORD PTR [rbp-0x8]
    12df:	c9                   	leave  
    12e0:	c3                   	ret    
    12e1:	66 2e 0f 1f 84 00 00 	cs nop WORD PTR [rax+rax*1+0x0]
    12e8:	00 00 00 
    12eb:	0f 1f 44 00 00       	nop    DWORD PTR [rax+rax*1+0x0]

00000000000012f0 <__libc_csu_init>:
    12f0:	f3 0f 1e fa          	endbr64 
    12f4:	41 57                	push   r15
    12f6:	4c 8d 3d eb 2a 00 00 	lea    r15,[rip+0x2aeb]        # 3de8 <__frame_dummy_init_array_entry>
    12fd:	41 56                	push   r14
    12ff:	49 89 d6             	mov    r14,rdx
    1302:	41 55                	push   r13
    1304:	49 89 f5             	mov    r13,rsi
    1307:	41 54                	push   r12
    1309:	41 89 fc             	mov    r12d,edi
    130c:	55                   	push   rbp
    130d:	48 8d 2d dc 2a 00 00 	lea    rbp,[rip+0x2adc]        # 3df0 <__do_global_dtors_aux_fini_array_entry>
    1314:	53                   	push   rbx
    1315:	4c 29 fd             	sub    rbp,r15
    1318:	48 83 ec 08          	sub    rsp,0x8
    131c:	e8 df fc ff ff       	call   1000 <_init>
    1321:	48 c1 fd 03          	sar    rbp,0x3
    1325:	74 1f                	je     1346 <__libc_csu_init+0x56>
    1327:	31 db                	xor    ebx,ebx
    1329:	0f 1f 80 00 00 00 00 	nop    DWORD PTR [rax+0x0]
    1330:	4c 89 f2             	mov    rdx,r14
    1333:	4c 89 ee             	mov    rsi,r13
    1336:	44 89 e7             	mov    edi,r12d
    1339:	41 ff 14 df          	call   QWORD PTR [r15+rbx*8]
    133d:	48 83 c3 01          	add    rbx,0x1
    1341:	48 39 dd             	cmp    rbp,rbx
    1344:	75 ea                	jne    1330 <__libc_csu_init+0x40>
    1346:	48 83 c4 08          	add    rsp,0x8
    134a:	5b                   	pop    rbx
    134b:	5d                   	pop    rbp
    134c:	41 5c                	pop    r12
    134e:	41 5d                	pop    r13
    1350:	41 5e                	pop    r14
    1352:	41 5f                	pop    r15
    1354:	c3                   	ret    
    1355:	66 66 2e 0f 1f 84 00 	data16 cs nop WORD PTR [rax+rax*1+0x0]
    135c:	00 00 00 00 

0000000000001360 <__libc_csu_fini>:
    1360:	f3 0f 1e fa          	endbr64 
    1364:	c3                   	ret    

Disassembly of section .fini:

0000000000001368 <_fini>:
    1368:	f3 0f 1e fa          	endbr64 
    136c:	48 83 ec 08          	sub    rsp,0x8
    1370:	48 83 c4 08          	add    rsp,0x8
    1374:	c3                   	ret    
